; ModuleID = '44/401.c'
source_filename = "44/401.c"
target datalayout = "e-m:e-p270:32:32-p271:32:32-p272:64:64-i64:64-f80:128-n8:16:32:64-S128"
target triple = "x86_64-pc-linux-gnu"

@.str = private unnamed_addr constant [3 x i8] c"%d\00", align 1
@.str.1 = private unnamed_addr constant [4 x i8] c"%d\0A\00", align 1

; Function Attrs: noinline nounwind uwtable
define dso_local i32 @reverse(i32 %0) #0 {
  %2 = alloca i32, align 4
  %3 = alloca i32, align 4
  %4 = alloca i32, align 4
  %5 = alloca i32, align 4
  %6 = alloca [100 x i32], align 16
  %7 = alloca i32, align 4
  %8 = alloca i32, align 4
  store i32 %0, i32* %3, align 4
  store i32 0, i32* %7, align 4
  store i32 1, i32* %8, align 4
  %9 = load i32, i32* %3, align 4
  %10 = icmp slt i32 %9, 0
  br i1 %10, label %11, label %14

11:                                               ; preds = %1
  %12 = load i32, i32* %3, align 4
  %13 = sub nsw i32 0, %12
  store i32 %13, i32* %3, align 4
  store i32 0, i32* %8, align 4
  br label %14

14:                                               ; preds = %11, %1
  store i32 0, i32* %4, align 4
  br label %15

15:                                               ; preds = %28, %14
  br i1 true, label %16, label %31

16:                                               ; preds = %15
  %17 = load i32, i32* %3, align 4
  %18 = icmp slt i32 %17, 10
  br i1 %18, label %19, label %20

19:                                               ; preds = %16
  br label %31

20:                                               ; preds = %16
  %21 = load i32, i32* %3, align 4
  %22 = srem i32 %21, 10
  %23 = load i32, i32* %4, align 4
  %24 = sext i32 %23 to i64
  %25 = getelementptr inbounds [100 x i32], [100 x i32]* %6, i64 0, i64 %24
  store i32 %22, i32* %25, align 4
  %26 = load i32, i32* %3, align 4
  %27 = sdiv i32 %26, 10
  store i32 %27, i32* %3, align 4
  br label %28

28:                                               ; preds = %20
  %29 = load i32, i32* %4, align 4
  %30 = add nsw i32 %29, 1
  store i32 %30, i32* %4, align 4
  br label %15

31:                                               ; preds = %19, %15
  store i32 0, i32* %5, align 4
  br label %32

32:                                               ; preds = %52, %31
  %33 = load i32, i32* %5, align 4
  %34 = load i32, i32* %4, align 4
  %35 = icmp slt i32 %33, %34
  br i1 %35, label %36, label %55

36:                                               ; preds = %32
  %37 = load i32, i32* %5, align 4
  %38 = sext i32 %37 to i64
  %39 = getelementptr inbounds [100 x i32], [100 x i32]* %6, i64 0, i64 %38
  %40 = load i32, i32* %39, align 4
  %41 = sitofp i32 %40 to double
  %42 = load i32, i32* %4, align 4
  %43 = load i32, i32* %5, align 4
  %44 = sub nsw i32 %42, %43
  %45 = sitofp i32 %44 to double
  %46 = call double @pow(double 1.000000e+01, double %45) #3
  %47 = fmul double %41, %46
  %48 = load i32, i32* %7, align 4
  %49 = sitofp i32 %48 to double
  %50 = fadd double %49, %47
  %51 = fptosi double %50 to i32
  store i32 %51, i32* %7, align 4
  br label %52

52:                                               ; preds = %36
  %53 = load i32, i32* %5, align 4
  %54 = add nsw i32 %53, 1
  store i32 %54, i32* %5, align 4
  br label %32

55:                                               ; preds = %32
  %56 = load i32, i32* %3, align 4
  %57 = load i32, i32* %7, align 4
  %58 = add nsw i32 %57, %56
  store i32 %58, i32* %7, align 4
  %59 = load i32, i32* %8, align 4
  %60 = icmp eq i32 %59, 0
  br i1 %60, label %61, label %64

61:                                               ; preds = %55
  %62 = load i32, i32* %7, align 4
  %63 = sub nsw i32 0, %62
  store i32 %63, i32* %2, align 4
  br label %66

64:                                               ; preds = %55
  %65 = load i32, i32* %7, align 4
  store i32 %65, i32* %2, align 4
  br label %66

66:                                               ; preds = %64, %61
  %67 = load i32, i32* %2, align 4
  ret i32 %67
}

; Function Attrs: nounwind
declare dso_local double @pow(double, double) #1

; Function Attrs: noinline nounwind uwtable
define dso_local i32 @main() #0 {
  %1 = alloca i32, align 4
  %2 = alloca i32, align 4
  %3 = alloca i32, align 4
  %4 = alloca i32, align 4
  store i32 0, i32* %1, align 4
  store i32 0, i32* %2, align 4
  br label %5

5:                                                ; preds = %21, %0
  %6 = load i32, i32* %2, align 4
  %7 = icmp slt i32 %6, 6
  br i1 %7, label %8, label %24

8:                                                ; preds = %5
  %9 = call i32 (i8*, ...) @__isoc99_scanf(i8* getelementptr inbounds ([3 x i8], [3 x i8]* @.str, i64 0, i64 0), i32* %3)
  %10 = load i32, i32* %3, align 4
  %11 = call i32 @reverse(i32 %10)
  store i32 %11, i32* %4, align 4
  %12 = load i32, i32* %2, align 4
  %13 = icmp slt i32 %12, 5
  br i1 %13, label %14, label %17

14:                                               ; preds = %8
  %15 = load i32, i32* %4, align 4
  %16 = call i32 (i8*, ...) @printf(i8* getelementptr inbounds ([4 x i8], [4 x i8]* @.str.1, i64 0, i64 0), i32 %15)
  br label %20

17:                                               ; preds = %8
  %18 = load i32, i32* %4, align 4
  %19 = call i32 (i8*, ...) @printf(i8* getelementptr inbounds ([3 x i8], [3 x i8]* @.str, i64 0, i64 0), i32 %18)
  br label %20

20:                                               ; preds = %17, %14
  br label %21

21:                                               ; preds = %20
  %22 = load i32, i32* %2, align 4
  %23 = add nsw i32 %22, 1
  store i32 %23, i32* %2, align 4
  br label %5

24:                                               ; preds = %5
  ret i32 0
}

declare dso_local i32 @__isoc99_scanf(i8*, ...) #2

declare dso_local i32 @printf(i8*, ...) #2


!llvm.module.flags = !{!0}
!llvm.ident = !{!1}

!0 = !{i32 1, !"wchar_size", i32 4}
!1 = !{!"clang version 10.0.0-4ubuntu1 "}
